; ModuleID = '29/1609.cpp'
source_filename = "29/1609.cpp"
target datalayout = "e-m:e-p270:32:32-p271:32:32-p272:64:64-i64:64-f80:128-n8:16:32:64-S128"
target triple = "x86_64-pc-linux-gnu"

%"class.std::ios_base::Init" = type { i8 }
%"class.std::basic_istream" = type { i32 (...)**, i64, %"class.std::basic_ios" }
%"class.std::basic_ios" = type { %"class.std::ios_base", %"class.std::basic_ostream"*, i8, i8, %"class.std::basic_streambuf"*, %"class.std::ctype"*, %"class.std::num_put"*, %"class.std::num_get"* }
%"class.std::ios_base" = type { i32 (...)**, i64, i64, i32, i32, i32, %"struct.std::ios_base::_Callback_list"*, %"struct.std::ios_base::_Words", [8 x %"struct.std::ios_base::_Words"], i32, %"struct.std::ios_base::_Words"*, %"class.std::locale" }
%"struct.std::ios_base::_Callback_list" = type { %"struct.std::ios_base::_Callback_list"*, void (i32, %"class.std::ios_base"*, i32)*, i32, i32 }
%"struct.std::ios_base::_Words" = type { i8*, i64 }
%"class.std::locale" = type { %"class.std::locale::_Impl"* }
%"class.std::locale::_Impl" = type { i32, %"class.std::locale::facet"**, i64, %"class.std::locale::facet"**, i8** }
%"class.std::locale::facet" = type <{ i32 (...)**, i32, [4 x i8] }>
%"class.std::basic_ostream" = type { i32 (...)**, %"class.std::basic_ios" }
%"class.std::basic_streambuf" = type { i32 (...)**, i8*, i8*, i8*, i8*, i8*, i8*, %"class.std::locale" }
%"class.std::ctype" = type <{ %"class.std::locale::facet.base", [4 x i8], %struct.__locale_struct*, i8, [7 x i8], i32*, i32*, i16*, i8, [256 x i8], [256 x i8], i8, [6 x i8] }>
%"class.std::locale::facet.base" = type <{ i32 (...)**, i32 }>
%struct.__locale_struct = type { [13 x %struct.__locale_data*], i16*, i32*, i32*, [13 x i8*] }
%struct.__locale_data = type opaque
%"class.std::num_put" = type { %"class.std::locale::facet.base", [4 x i8] }
%"class.std::num_get" = type { %"class.std::locale::facet.base", [4 x i8] }

@_ZStL8__ioinit = internal global %"class.std::ios_base::Init" zeroinitializer, align 1
@__dso_handle = external hidden global i8
@_ZSt3cin = external dso_local global %"class.std::basic_istream", align 8
@.str = private unnamed_addr constant [5 x i8] c"%.3f\00", align 1
@_ZSt4cout = external dso_local global %"class.std::basic_ostream", align 8
@llvm.global_ctors = appending global [1 x { i32, void ()*, i8* }] [{ i32, void ()*, i8* } { i32 65535, void ()* @_GLOBAL__sub_I_1609.cpp, i8* null }]

; Function Attrs: noinline uwtable
define internal void @__cxx_global_var_init() #0 section ".text.startup" {
  call void @_ZNSt8ios_base4InitC1Ev(%"class.std::ios_base::Init"* @_ZStL8__ioinit)
  %1 = call i32 @__cxa_atexit(void (i8*)* bitcast (void (%"class.std::ios_base::Init"*)* @_ZNSt8ios_base4InitD1Ev to void (i8*)*), i8* getelementptr inbounds (%"class.std::ios_base::Init", %"class.std::ios_base::Init"* @_ZStL8__ioinit, i32 0, i32 0), i8* @__dso_handle) #3
  ret void
}

declare dso_local void @_ZNSt8ios_base4InitC1Ev(%"class.std::ios_base::Init"*) unnamed_addr #1

; Function Attrs: nounwind
declare dso_local void @_ZNSt8ios_base4InitD1Ev(%"class.std::ios_base::Init"*) unnamed_addr #2

; Function Attrs: nounwind
declare dso_local i32 @__cxa_atexit(void (i8*)*, i8*, i8*) #3

; Function Attrs: noinline norecurse uwtable
define dso_local i32 @main() #4 {
  %1 = alloca i32, align 4
  %2 = alloca i32, align 4
  %3 = alloca i32, align 4
  %4 = alloca i32, align 4
  %5 = alloca i32, align 4
  %6 = alloca [100 x float], align 16
  %7 = alloca [100 x float], align 16
  %8 = alloca float, align 4
  store i32 0, i32* %1, align 4
  %9 = call dereferenceable(280) %"class.std::basic_istream"* @_ZNSirsERi(%"class.std::basic_istream"* @_ZSt3cin, i32* dereferenceable(4) %2)
  %10 = getelementptr inbounds [100 x float], [100 x float]* %6, i64 0, i64 1
  store float 2.000000e+00, float* %10, align 4
  %11 = getelementptr inbounds [100 x float], [100 x float]* %6, i64 0, i64 2
  store float 3.000000e+00, float* %11, align 8
  %12 = getelementptr inbounds [100 x float], [100 x float]* %7, i64 0, i64 1
  store float 1.000000e+00, float* %12, align 4
  %13 = getelementptr inbounds [100 x float], [100 x float]* %7, i64 0, i64 2
  store float 2.000000e+00, float* %13, align 8
  store i32 1, i32* %4, align 4
  br label %14

14:                                               ; preds = %117, %0
  %15 = load i32, i32* %4, align 4
  %16 = load i32, i32* %2, align 4
  %17 = icmp sle i32 %15, %16
  br i1 %17, label %18, label %120

18:                                               ; preds = %14
  store float 0.000000e+00, float* %8, align 4
  %19 = call dereferenceable(280) %"class.std::basic_istream"* @_ZNSirsERi(%"class.std::basic_istream"* @_ZSt3cin, i32* dereferenceable(4) %3)
  %20 = load i32, i32* %3, align 4
  %21 = icmp eq i32 %20, 1
  br i1 %21, label %22, label %30

22:                                               ; preds = %18
  %23 = load float, float* %8, align 4
  %24 = getelementptr inbounds [100 x float], [100 x float]* %6, i64 0, i64 1
  %25 = load float, float* %24, align 4
  %26 = getelementptr inbounds [100 x float], [100 x float]* %7, i64 0, i64 1
  %27 = load float, float* %26, align 4
  %28 = fdiv float %25, %27
  %29 = fadd float %23, %28
  store float %29, float* %8, align 4
  br label %30

30:                                               ; preds = %22, %18
  %31 = load i32, i32* %3, align 4
  %32 = icmp eq i32 %31, 2
  br i1 %32, label %33, label %47

33:                                               ; preds = %30
  %34 = load float, float* %8, align 4
  %35 = getelementptr inbounds [100 x float], [100 x float]* %6, i64 0, i64 1
  %36 = load float, float* %35, align 4
  %37 = getelementptr inbounds [100 x float], [100 x float]* %7, i64 0, i64 1
  %38 = load float, float* %37, align 4
  %39 = fdiv float %36, %38
  %40 = fadd float %34, %39
  %41 = getelementptr inbounds [100 x float], [100 x float]* %6, i64 0, i64 2
  %42 = load float, float* %41, align 8
  %43 = getelementptr inbounds [100 x float], [100 x float]* %7, i64 0, i64 2
  %44 = load float, float* %43, align 8
  %45 = fdiv float %42, %44
  %46 = fadd float %40, %45
  store float %46, float* %8, align 4
  br label %47

47:                                               ; preds = %33, %30
  %48 = load i32, i32* %3, align 4
  %49 = icmp sge i32 %48, 3
  br i1 %49, label %50, label %112

50:                                               ; preds = %47
  %51 = load float, float* %8, align 4
  %52 = getelementptr inbounds [100 x float], [100 x float]* %6, i64 0, i64 1
  %53 = load float, float* %52, align 4
  %54 = getelementptr inbounds [100 x float], [100 x float]* %7, i64 0, i64 1
  %55 = load float, float* %54, align 4
  %56 = fdiv float %53, %55
  %57 = fadd float %51, %56
  %58 = getelementptr inbounds [100 x float], [100 x float]* %6, i64 0, i64 2
  %59 = load float, float* %58, align 8
  %60 = getelementptr inbounds [100 x float], [100 x float]* %7, i64 0, i64 2
  %61 = load float, float* %60, align 8
  %62 = fdiv float %59, %61
  %63 = fadd float %57, %62
  store float %63, float* %8, align 4
  store i32 3, i32* %5, align 4
  br label %64

64:                                               ; preds = %108, %50
  %65 = load i32, i32* %5, align 4
  %66 = load i32, i32* %3, align 4
  %67 = icmp sle i32 %65, %66
  br i1 %67, label %68, label %111

68:                                               ; preds = %64
  %69 = load i32, i32* %5, align 4
  %70 = sub nsw i32 %69, 1
  %71 = sext i32 %70 to i64
  %72 = getelementptr inbounds [100 x float], [100 x float]* %6, i64 0, i64 %71
  %73 = load float, float* %72, align 4
  %74 = load i32, i32* %5, align 4
  %75 = sub nsw i32 %74, 2
  %76 = sext i32 %75 to i64
  %77 = getelementptr inbounds [100 x float], [100 x float]* %6, i64 0, i64 %76
  %78 = load float, float* %77, align 4
  %79 = fadd float %73, %78
  %80 = load i32, i32* %5, align 4
  %81 = sext i32 %80 to i64
  %82 = getelementptr inbounds [100 x float], [100 x float]* %6, i64 0, i64 %81
  store float %79, float* %82, align 4
  %83 = load i32, i32* %5, align 4
  %84 = sub nsw i32 %83, 1
  %85 = sext i32 %84 to i64
  %86 = getelementptr inbounds [100 x float], [100 x float]* %7, i64 0, i64 %85
  %87 = load float, float* %86, align 4
  %88 = load i32, i32* %5, align 4
  %89 = sub nsw i32 %88, 2
  %90 = sext i32 %89 to i64
  %91 = getelementptr inbounds [100 x float], [100 x float]* %7, i64 0, i64 %90
  %92 = load float, float* %91, align 4
  %93 = fadd float %87, %92
  %94 = load i32, i32* %5, align 4
  %95 = sext i32 %94 to i64
  %96 = getelementptr inbounds [100 x float], [100 x float]* %7, i64 0, i64 %95
  store float %93, float* %96, align 4
  %97 = load float, float* %8, align 4
  %98 = load i32, i32* %5, align 4
  %99 = sext i32 %98 to i64
  %100 = getelementptr inbounds [100 x float], [100 x float]* %6, i64 0, i64 %99
  %101 = load float, float* %100, align 4
  %102 = load i32, i32* %5, align 4
  %103 = sext i32 %102 to i64
  %104 = getelementptr inbounds [100 x float], [100 x float]* %7, i64 0, i64 %103
  %105 = load float, float* %104, align 4
  %106 = fdiv float %101, %105
  %107 = fadd float %97, %106
  store float %107, float* %8, align 4
  br label %108

108:                                              ; preds = %68
  %109 = load i32, i32* %5, align 4
  %110 = add nsw i32 %109, 1
  store i32 %110, i32* %5, align 4
  br label %64

111:                                              ; preds = %64
  br label %112

112:                                              ; preds = %111, %47
  %113 = load float, float* %8, align 4
  %114 = fpext float %113 to double
  %115 = call i32 (i8*, ...) @printf(i8* getelementptr inbounds ([5 x i8], [5 x i8]* @.str, i64 0, i64 0), double %114)
  %116 = call dereferenceable(272) %"class.std::basic_ostream"* @_ZNSolsEPFRSoS_E(%"class.std::basic_ostream"* @_ZSt4cout, %"class.std::basic_ostream"* (%"class.std::basic_ostream"*)* @_ZSt4endlIcSt11char_traitsIcEERSt13basic_ostreamIT_T0_ES6_)
  br label %117

117:                                              ; preds = %112
  %118 = load i32, i32* %4, align 4
  %119 = add nsw i32 %118, 1
  store i32 %119, i32* %4, align 4
  br label %14

120:                                              ; preds = %14
  ret i32 0
}

declare dso_local dereferenceable(280) %"class.std::basic_istream"* @_ZNSirsERi(%"class.std::basic_istream"*, i32* dereferenceable(4)) #1

declare dso_local i32 @printf(i8*, ...) #1

declare dso_local dereferenceable(272) %"class.std::basic_ostream"* @_ZNSolsEPFRSoS_E(%"class.std::basic_ostream"*, %"class.std::basic_ostream"* (%"class.std::basic_ostream"*)*) #1

declare dso_local dereferenceable(272) %"class.std::basic_ostream"* @_ZSt4endlIcSt11char_traitsIcEERSt13basic_ostreamIT_T0_ES6_(%"class.std::basic_ostream"* dereferenceable(272)) #1

; Function Attrs: noinline uwtable
define internal void @_GLOBAL__sub_I_1609.cpp() #0 section ".text.startup" {
  call void @__cxx_global_var_init()
  ret void
}


!llvm.module.flags = !{!0}
!llvm.ident = !{!1}

!0 = !{i32 1, !"wchar_size", i32 4}
!1 = !{!"clang version 10.0.0-4ubuntu1 "}
