; ModuleID = 'source-C-CXX/28/1609.cpp'
source_filename = "source-C-CXX/28/1609.cpp"
target datalayout = "e-m:e-p270:32:32-p271:32:32-p272:64:64-i64:64-f80:128-n8:16:32:64-S128"
target triple = "x86_64-pc-linux-gnu"

%"class.std::ios_base::Init" = type { i8 }
%"class.std::basic_istream" = type { i32 (...)**, i64, %"class.std::basic_ios" }
%"class.std::basic_ios" = type { %"class.std::ios_base", %"class.std::basic_ostream"*, i8, i8, %"class.std::basic_streambuf"*, %"class.std::ctype"*, %"class.std::num_put"*, %"class.std::num_get"* }
%"class.std::ios_base" = type { i32 (...)**, i64, i64, i32, i32, i32, %"struct.std::ios_base::_Callback_list"*, %"struct.std::ios_base::_Words", [8 x %"struct.std::ios_base::_Words"], i32, %"struct.std::ios_base::_Words"*, %"class.std::locale" }
%"struct.std::ios_base::_Callback_list" = type { %"struct.std::ios_base::_Callback_list"*, void (i32, %"class.std::ios_base"*, i32)*, i32, i32 }
%"struct.std::ios_base::_Words" = type { i8*, i64 }
%"class.std::locale" = type { %"class.std::locale::_Impl"* }
%"class.std::locale::_Impl" = type { i32, %"class.std::locale::facet"**, i64, %"class.std::locale::facet"**, i8** }
%"class.std::locale::facet" = type <{ i32 (...)**, i32, [4 x i8] }>
%"class.std::basic_ostream" = type { i32 (...)**, %"class.std::basic_ios" }
%"class.std::basic_streambuf" = type { i32 (...)**, i8*, i8*, i8*, i8*, i8*, i8*, %"class.std::locale" }
%"class.std::ctype" = type <{ %"class.std::locale::facet.base", [4 x i8], %struct.__locale_struct*, i8, [7 x i8], i32*, i32*, i16*, i8, [256 x i8], [256 x i8], i8, [6 x i8] }>
%"class.std::locale::facet.base" = type <{ i32 (...)**, i32 }>
%struct.__locale_struct = type { [13 x %struct.__locale_data*], i16*, i32*, i32*, [13 x i8*] }
%struct.__locale_data = type opaque
%"class.std::num_put" = type { %"class.std::locale::facet.base", [4 x i8] }
%"class.std::num_get" = type { %"class.std::locale::facet.base", [4 x i8] }

@_ZStL8__ioinit = internal global %"class.std::ios_base::Init" zeroinitializer, align 1
@__dso_handle = external hidden global i8
@_ZSt3cin = external global %"class.std::basic_istream", align 8
@.str = private unnamed_addr constant [5 x i8] c"%.3f\00", align 1
@_ZSt4cout = external global %"class.std::basic_ostream", align 8
@llvm.global_ctors = appending global [1 x { i32, void ()*, i8* }] [{ i32, void ()*, i8* } { i32 65535, void ()* @_GLOBAL__sub_I_1609.cpp, i8* null }]

declare void @_ZNSt8ios_base4InitC1Ev(%"class.std::ios_base::Init"* nonnull align 1 dereferenceable(1)) unnamed_addr #0

; Function Attrs: nounwind
declare void @_ZNSt8ios_base4InitD1Ev(%"class.std::ios_base::Init"* nonnull align 1 dereferenceable(1)) unnamed_addr #1

; Function Attrs: nofree nounwind
declare i32 @__cxa_atexit(void (i8*)*, i8*, i8*) local_unnamed_addr #2

; Function Attrs: mustprogress norecurse sspstrong uwtable
define dso_local i32 @main() local_unnamed_addr #3 {
  %1 = alloca i32, align 4
  %2 = alloca i32, align 4
  %3 = alloca [100 x float], align 16
  %4 = alloca [100 x float], align 16
  %5 = bitcast i32* %1 to i8*
  call void @llvm.lifetime.start.p0i8(i64 4, i8* nonnull %5) #8
  %6 = bitcast i32* %2 to i8*
  call void @llvm.lifetime.start.p0i8(i64 4, i8* nonnull %6) #8
  %7 = bitcast [100 x float]* %3 to i8*
  call void @llvm.lifetime.start.p0i8(i64 400, i8* nonnull %7) #8
  %8 = bitcast [100 x float]* %4 to i8*
  call void @llvm.lifetime.start.p0i8(i64 400, i8* nonnull %8) #8
  %9 = call nonnull align 8 dereferenceable(16) %"class.std::basic_istream"* @_ZNSirsERi(%"class.std::basic_istream"* nonnull align 8 dereferenceable(16) @_ZSt3cin, i32* nonnull align 4 dereferenceable(4) %1)
  %10 = getelementptr inbounds [100 x float], [100 x float]* %3, i64 0, i64 1
  store float 2.000000e+00, float* %10, align 4, !tbaa !5
  %11 = getelementptr inbounds [100 x float], [100 x float]* %3, i64 0, i64 2
  store float 3.000000e+00, float* %11, align 8, !tbaa !5
  %12 = getelementptr inbounds [100 x float], [100 x float]* %4, i64 0, i64 1
  store float 1.000000e+00, float* %12, align 4, !tbaa !5
  %13 = getelementptr inbounds [100 x float], [100 x float]* %4, i64 0, i64 2
  store float 2.000000e+00, float* %13, align 8, !tbaa !5
  %14 = load i32, i32* %1, align 4, !tbaa !9
  %15 = icmp slt i32 %14, 1
  br i1 %15, label %114, label %16

16:                                               ; preds = %0
  %17 = bitcast float* %10 to <2 x float>*
  %18 = bitcast float* %12 to <2 x float>*
  %19 = getelementptr inbounds [100 x float], [100 x float]* %3, i64 0, i64 3
  %20 = getelementptr inbounds [100 x float], [100 x float]* %4, i64 0, i64 3
  br label %21

21:                                               ; preds = %16, %107
  %22 = phi i32 [ %111, %107 ], [ 1, %16 ]
  %23 = call nonnull align 8 dereferenceable(16) %"class.std::basic_istream"* @_ZNSirsERi(%"class.std::basic_istream"* nonnull align 8 dereferenceable(16) @_ZSt3cin, i32* nonnull align 4 dereferenceable(4) %2)
  %24 = load i32, i32* %2, align 4, !tbaa !9
  switch i32 %24, label %38 [
    i32 1, label %25
    i32 2, label %30
  ]

25:                                               ; preds = %21
  %26 = load float, float* %10, align 4, !tbaa !5
  %27 = load float, float* %12, align 4, !tbaa !5
  %28 = fdiv float %26, %27
  %29 = fadd float %28, 0.000000e+00
  br label %80

30:                                               ; preds = %21
  %31 = load <2 x float>, <2 x float>* %17, align 4, !tbaa !5
  %32 = load <2 x float>, <2 x float>* %18, align 4, !tbaa !5
  %33 = fdiv <2 x float> %31, %32
  %34 = extractelement <2 x float> %33, i32 0
  %35 = fadd float %34, 0.000000e+00
  %36 = extractelement <2 x float> %33, i32 1
  %37 = fadd float %35, %36
  br label %80

38:                                               ; preds = %21
  %39 = icmp sgt i32 %24, 2
  br i1 %39, label %40, label %80

40:                                               ; preds = %38
  %41 = load float, float* %10, align 4, !tbaa !5
  %42 = load float, float* %12, align 4, !tbaa !5
  %43 = load float, float* %11, align 8, !tbaa !5
  %44 = load float, float* %13, align 8, !tbaa !5
  %45 = fdiv float %41, %42
  %46 = fadd float %45, 0.000000e+00
  %47 = fadd float %43, %41
  %48 = fadd float %44, %42
  %49 = insertelement <2 x float> poison, float %43, i32 0
  %50 = insertelement <2 x float> %49, float %47, i32 1
  %51 = insertelement <2 x float> poison, float %44, i32 0
  %52 = insertelement <2 x float> %51, float %48, i32 1
  %53 = fdiv <2 x float> %50, %52
  %54 = extractelement <2 x float> %53, i32 0
  %55 = fadd float %46, %54
  %56 = add nuw i32 %24, 1
  %57 = zext i32 %56 to i64
  store float %47, float* %19, align 4, !tbaa !5
  store float %48, float* %20, align 4, !tbaa !5
  %58 = extractelement <2 x float> %53, i32 1
  %59 = fadd float %55, %58
  %60 = icmp eq i32 %56, 4
  br i1 %60, label %80, label %61, !llvm.loop !11

61:                                               ; preds = %40, %61
  %62 = phi i64 [ %78, %61 ], [ 4, %40 ]
  %63 = phi float [ %77, %61 ], [ %59, %40 ]
  %64 = phi float [ %74, %61 ], [ %48, %40 ]
  %65 = phi float [ %72, %61 ], [ %47, %40 ]
  %66 = phi i64 [ %71, %61 ], [ 2, %40 ]
  %67 = getelementptr inbounds [100 x float], [100 x float]* %4, i64 0, i64 %66
  %68 = getelementptr inbounds [100 x float], [100 x float]* %3, i64 0, i64 %66
  %69 = load float, float* %68, align 4, !tbaa !5
  %70 = load float, float* %67, align 4, !tbaa !5
  %71 = add nsw i64 %62, -1
  %72 = fadd float %65, %69
  %73 = getelementptr inbounds [100 x float], [100 x float]* %3, i64 0, i64 %62
  store float %72, float* %73, align 4, !tbaa !5
  %74 = fadd float %64, %70
  %75 = getelementptr inbounds [100 x float], [100 x float]* %4, i64 0, i64 %62
  store float %74, float* %75, align 4, !tbaa !5
  %76 = fdiv float %72, %74
  %77 = fadd float %63, %76
  %78 = add nuw nsw i64 %62, 1
  %79 = icmp eq i64 %78, %57
  br i1 %79, label %80, label %61, !llvm.loop !11

80:                                               ; preds = %61, %40, %30, %25, %38
  %81 = phi float [ 0.000000e+00, %38 ], [ %29, %25 ], [ %37, %30 ], [ %59, %40 ], [ %77, %61 ]
  %82 = fpext float %81 to double
  %83 = call i32 (i8*, ...) @printf(i8* nonnull dereferenceable(1) getelementptr inbounds ([5 x i8], [5 x i8]* @.str, i64 0, i64 0), double %82)
  %84 = load i8*, i8** bitcast (%"class.std::basic_ostream"* @_ZSt4cout to i8**), align 8, !tbaa !13
  %85 = getelementptr i8, i8* %84, i64 -24
  %86 = bitcast i8* %85 to i64*
  %87 = load i64, i64* %86, align 8
  %88 = add nsw i64 %87, 240
  %89 = getelementptr inbounds i8, i8* bitcast (%"class.std::basic_ostream"* @_ZSt4cout to i8*), i64 %88
  %90 = bitcast i8* %89 to %"class.std::ctype"**
  %91 = load %"class.std::ctype"*, %"class.std::ctype"** %90, align 8, !tbaa !15
  %92 = icmp eq %"class.std::ctype"* %91, null
  br i1 %92, label %93, label %94

93:                                               ; preds = %80
  call void @_ZSt16__throw_bad_castv() #9
  unreachable

94:                                               ; preds = %80
  %95 = getelementptr inbounds %"class.std::ctype", %"class.std::ctype"* %91, i64 0, i32 8
  %96 = load i8, i8* %95, align 8, !tbaa !19
  %97 = icmp eq i8 %96, 0
  br i1 %97, label %101, label %98

98:                                               ; preds = %94
  %99 = getelementptr inbounds %"class.std::ctype", %"class.std::ctype"* %91, i64 0, i32 9, i64 10
  %100 = load i8, i8* %99, align 1, !tbaa !21
  br label %107

101:                                              ; preds = %94
  call void @_ZNKSt5ctypeIcE13_M_widen_initEv(%"class.std::ctype"* nonnull align 8 dereferenceable(570) %91)
  %102 = bitcast %"class.std::ctype"* %91 to i8 (%"class.std::ctype"*, i8)***
  %103 = load i8 (%"class.std::ctype"*, i8)**, i8 (%"class.std::ctype"*, i8)*** %102, align 8, !tbaa !13
  %104 = getelementptr inbounds i8 (%"class.std::ctype"*, i8)*, i8 (%"class.std::ctype"*, i8)** %103, i64 6
  %105 = load i8 (%"class.std::ctype"*, i8)*, i8 (%"class.std::ctype"*, i8)** %104, align 8
  %106 = call signext i8 %105(%"class.std::ctype"* nonnull align 8 dereferenceable(570) %91, i8 signext 10)
  br label %107

107:                                              ; preds = %98, %101
  %108 = phi i8 [ %100, %98 ], [ %106, %101 ]
  %109 = call nonnull align 8 dereferenceable(8) %"class.std::basic_ostream"* @_ZNSo3putEc(%"class.std::basic_ostream"* nonnull align 8 dereferenceable(8) @_ZSt4cout, i8 signext %108)
  %110 = call nonnull align 8 dereferenceable(8) %"class.std::basic_ostream"* @_ZNSo5flushEv(%"class.std::basic_ostream"* nonnull align 8 dereferenceable(8) %109)
  %111 = add nuw nsw i32 %22, 1
  %112 = load i32, i32* %1, align 4, !tbaa !9
  %113 = icmp slt i32 %22, %112
  br i1 %113, label %21, label %114, !llvm.loop !22

114:                                              ; preds = %107, %0
  call void @llvm.lifetime.end.p0i8(i64 400, i8* nonnull %8) #8
  call void @llvm.lifetime.end.p0i8(i64 400, i8* nonnull %7) #8
  call void @llvm.lifetime.end.p0i8(i64 4, i8* nonnull %6) #8
  call void @llvm.lifetime.end.p0i8(i64 4, i8* nonnull %5) #8
  ret i32 0
}

; Function Attrs: argmemonly mustprogress nofree nosync nounwind willreturn
declare void @llvm.lifetime.start.p0i8(i64 immarg, i8* nocapture) #4

declare nonnull align 8 dereferenceable(16) %"class.std::basic_istream"* @_ZNSirsERi(%"class.std::basic_istream"* nonnull align 8 dereferenceable(16), i32* nonnull align 4 dereferenceable(4)) local_unnamed_addr #0

; Function Attrs: nofree nounwind
declare noundef i32 @printf(i8* nocapture noundef readonly, ...) local_unnamed_addr #5

; Function Attrs: argmemonly mustprogress nofree nosync nounwind willreturn
declare void @llvm.lifetime.end.p0i8(i64 immarg, i8* nocapture) #4

declare nonnull align 8 dereferenceable(8) %"class.std::basic_ostream"* @_ZNSo3putEc(%"class.std::basic_ostream"* nonnull align 8 dereferenceable(8), i8 signext) local_unnamed_addr #0

declare nonnull align 8 dereferenceable(8) %"class.std::basic_ostream"* @_ZNSo5flushEv(%"class.std::basic_ostream"* nonnull align 8 dereferenceable(8)) local_unnamed_addr #0

; Function Attrs: noreturn
declare void @_ZSt16__throw_bad_castv() local_unnamed_addr #6

declare void @_ZNKSt5ctypeIcE13_M_widen_initEv(%"class.std::ctype"* nonnull align 8 dereferenceable(570)) local_unnamed_addr #0

; Function Attrs: sspstrong uwtable
define internal void @_GLOBAL__sub_I_1609.cpp() #7 section ".text.startup" {
  tail call void @_ZNSt8ios_base4InitC1Ev(%"class.std::ios_base::Init"* nonnull align 1 dereferenceable(1) @_ZStL8__ioinit)
  %1 = tail call i32 @__cxa_atexit(void (i8*)* bitcast (void (%"class.std::ios_base::Init"*)* @_ZNSt8ios_base4InitD1Ev to void (i8*)*), i8* getelementptr inbounds (%"class.std::ios_base::Init", %"class.std::ios_base::Init"* @_ZStL8__ioinit, i64 0, i32 0), i8* nonnull @__dso_handle) #8
  ret void
}


!llvm.module.flags = !{!0, !1, !2, !3}
!llvm.ident = !{!4}

!0 = !{i32 1, !"wchar_size", i32 4}
!1 = !{i32 7, !"PIC Level", i32 2}
!2 = !{i32 7, !"PIE Level", i32 2}
!3 = !{i32 7, !"uwtable", i32 1}
!4 = !{!"clang version 13.0.0"}
!5 = !{!6, !6, i64 0}
!6 = !{!"float", !7, i64 0}
!7 = !{!"omnipotent char", !8, i64 0}
!8 = !{!"Simple C++ TBAA"}
!9 = !{!10, !10, i64 0}
!10 = !{!"int", !7, i64 0}
!11 = distinct !{!11, !12}
!12 = !{!"llvm.loop.mustprogress"}
!13 = !{!14, !14, i64 0}
!14 = !{!"vtable pointer", !8, i64 0}
!15 = !{!16, !17, i64 240}
!16 = !{!"_ZTSSt9basic_iosIcSt11char_traitsIcEE", !17, i64 216, !7, i64 224, !18, i64 225, !17, i64 232, !17, i64 240, !17, i64 248, !17, i64 256}
!17 = !{!"any pointer", !7, i64 0}
!18 = !{!"bool", !7, i64 0}
!19 = !{!20, !7, i64 56}
!20 = !{!"_ZTSSt5ctypeIcE", !17, i64 16, !18, i64 24, !17, i64 32, !17, i64 40, !17, i64 48, !7, i64 56, !7, i64 57, !7, i64 313, !7, i64 569}
!21 = !{!7, !7, i64 0}
!22 = distinct !{!22, !12}
